target datalayout = "e-m:e-p270:32:32-p271:32:32-p272:64:64-i64:64-i128:128-f80:128-n8:16:32:64-S128"
target triple = "x86_64-pc-linux-gnu"

@.str.106 = private unnamed_addr constant [5 x i8] c" \0A\09\0D\00", align 1

; Function Attrs: nounwind uwtable
define internal i32 @is_key_char(i8 noundef signext %0) #0 {
  %2 = alloca i8, align 1
  store i8 %0, ptr %2, align 1, !tbaa !35
  %3 = load i8, ptr %2, align 1, !tbaa !35
  %4 = sext i8 %3 to i32
  %5 = or i32 %4, 32
  %6 = sub nsw i32 %5, 97
  %7 = icmp ult i32 %6, 26
  br i1 %7, label %29, label %8

8:                                                ; preds = %1
  %9 = load i8, ptr %2, align 1, !tbaa !35
  %10 = sext i8 %9 to i32
  %11 = sub nsw i32 %10, 48
  %12 = icmp ult i32 %11, 10
  br i1 %12, label %29, label %13

13:                                               ; preds = %8
  %14 = load i8, ptr %2, align 1, !tbaa !35
  %15 = sext i8 %14 to i32
  %16 = icmp eq i32 %15, 45
  br i1 %16, label %29, label %17

17:                                               ; preds = %13
  %18 = load i8, ptr %2, align 1, !tbaa !35
  %19 = sext i8 %18 to i32
  %20 = icmp eq i32 %19, 95
  br i1 %20, label %29, label %21

21:                                               ; preds = %17
  %22 = load i8, ptr %2, align 1, !tbaa !35
  %23 = sext i8 %22 to i32
  %24 = icmp eq i32 %23, 47
  br i1 %24, label %29, label %25

25:                                               ; preds = %21
  %26 = load i8, ptr %2, align 1, !tbaa !35
  %27 = sext i8 %26 to i32
  %28 = icmp eq i32 %27, 46
  br label %29

29:                                               ; preds = %25, %21, %17, %13, %8, %1
  %30 = phi i1 [ true, %21 ], [ true, %17 ], [ true, %13 ], [ true, %8 ], [ true, %1 ], [ %28, %25 ]
  %31 = zext i1 %30 to i32
  ret i32 %31
}

; Function Attrs: nounwind uwtable
define internal i32 @get_key(ptr noundef %0, ptr noundef %1, ptr noundef %2) #0 {
  %4 = alloca i32, align 4
  %5 = alloca ptr, align 8
  %6 = alloca ptr, align 8
  %7 = alloca ptr, align 8
  %8 = alloca ptr, align 8
  %9 = alloca ptr, align 8
  %10 = alloca ptr, align 8
  %11 = alloca i32, align 4
  store ptr %0, ptr %5, align 8, !tbaa !63
  store ptr %1, ptr %6, align 8, !tbaa !19
  store ptr %2, ptr %7, align 8, !tbaa !63
  call void @llvm.lifetime.start.p0(i64 8, ptr %8) #11
  %12 = load ptr, ptr %5, align 8, !tbaa !63
  %13 = load ptr, ptr %12, align 8, !tbaa !19
  store ptr %13, ptr %8, align 8, !tbaa !19
  call void @llvm.lifetime.start.p0(i64 8, ptr %9) #11
  call void @llvm.lifetime.start.p0(i64 8, ptr %10) #11
  %14 = load ptr, ptr %8, align 8, !tbaa !19
  %15 = call i64 @strspn(ptr noundef %14, ptr noundef @.str.106) #12
  %16 = load ptr, ptr %8, align 8, !tbaa !19
  %17 = getelementptr inbounds nuw i8, ptr %16, i64 %15
  store ptr %17, ptr %8, align 8, !tbaa !19
  store ptr %17, ptr %9, align 8, !tbaa !19
  br label %18

18:                                               ; preds = %23, %3
  %19 = load ptr, ptr %8, align 8, !tbaa !19
  %20 = load i8, ptr %19, align 1, !tbaa !35
  %21 = call i32 @is_key_char(i8 noundef signext %20)
  %22 = icmp ne i32 %21, 0
  br i1 %22, label %23, label %26

23:                                               ; preds = %18
  %24 = load ptr, ptr %8, align 8, !tbaa !19
  %25 = getelementptr inbounds nuw i8, ptr %24, i32 1
  store ptr %25, ptr %8, align 8, !tbaa !19
  br label %18, !llvm.loop !99

26:                                               ; preds = %18
  %27 = load ptr, ptr %8, align 8, !tbaa !19
  store ptr %27, ptr %10, align 8, !tbaa !19
  %28 = load ptr, ptr %8, align 8, !tbaa !19
  %29 = call i64 @strspn(ptr noundef %28, ptr noundef @.str.106) #12
  %30 = load ptr, ptr %8, align 8, !tbaa !19
  %31 = getelementptr inbounds nuw i8, ptr %30, i64 %29
  store ptr %31, ptr %8, align 8, !tbaa !19
  %32 = load ptr, ptr %8, align 8, !tbaa !19
  %33 = load i8, ptr %32, align 1, !tbaa !35
  %34 = icmp ne i8 %33, 0
  br i1 %34, label %35, label %42

35:                                               ; preds = %26
  %36 = load ptr, ptr %6, align 8, !tbaa !19
  %37 = load ptr, ptr %8, align 8, !tbaa !19
  %38 = load i8, ptr %37, align 1, !tbaa !35
  %39 = sext i8 %38 to i32
  %40 = call ptr @strchr(ptr noundef %36, i32 noundef %39) #12
  %41 = icmp ne ptr %40, null
  br i1 %41, label %43, label %42

42:                                               ; preds = %35, %26
  store i32 -22, ptr %4, align 4
  store i32 1, ptr %11, align 4
  br label %75

43:                                               ; preds = %35
  %44 = load ptr, ptr %8, align 8, !tbaa !19
  %45 = getelementptr inbounds nuw i8, ptr %44, i32 1
  store ptr %45, ptr %8, align 8, !tbaa !19
  %46 = load ptr, ptr %10, align 8, !tbaa !19
  %47 = load ptr, ptr %9, align 8, !tbaa !19
  %48 = ptrtoint ptr %46 to i64
  %49 = ptrtoint ptr %47 to i64
  %50 = sub i64 %48, %49
  %51 = add nsw i64 %50, 1
  %52 = call noalias ptr @av_malloc(i64 noundef %51)
  %53 = load ptr, ptr %7, align 8, !tbaa !63
  store ptr %52, ptr %53, align 8, !tbaa !19
  %54 = icmp ne ptr %52, null
  br i1 %54, label %56, label %55

55:                                               ; preds = %43
  store i32 -12, ptr %4, align 4
  store i32 1, ptr %11, align 4
  br label %75

56:                                               ; preds = %43
  %57 = load ptr, ptr %7, align 8, !tbaa !63
  %58 = load ptr, ptr %57, align 8, !tbaa !19
  %59 = load ptr, ptr %9, align 8, !tbaa !19
  %60 = load ptr, ptr %10, align 8, !tbaa !19
  %61 = load ptr, ptr %9, align 8, !tbaa !19
  %62 = ptrtoint ptr %60 to i64
  %63 = ptrtoint ptr %61 to i64
  %64 = sub i64 %62, %63
  call void @llvm.memcpy.p0.p0.i64(ptr align 1 %58, ptr align 1 %59, i64 %64, i1 false)
  %65 = load ptr, ptr %7, align 8, !tbaa !63
  %66 = load ptr, ptr %65, align 8, !tbaa !19
  %67 = load ptr, ptr %10, align 8, !tbaa !19
  %68 = load ptr, ptr %9, align 8, !tbaa !19
  %69 = ptrtoint ptr %67 to i64
  %70 = ptrtoint ptr %68 to i64
  %71 = sub i64 %69, %70
  %72 = getelementptr inbounds i8, ptr %66, i64 %71
  store i8 0, ptr %72, align 1, !tbaa !35
  %73 = load ptr, ptr %8, align 8, !tbaa !19
  %74 = load ptr, ptr %5, align 8, !tbaa !63
  store ptr %73, ptr %74, align 8, !tbaa !19
  store i32 0, ptr %4, align 4
  store i32 1, ptr %11, align 4
  br label %75

75:                                               ; preds = %56, %55, %42
  call void @llvm.lifetime.end.p0(i64 8, ptr %10) #11
  call void @llvm.lifetime.end.p0(i64 8, ptr %9) #11
  call void @llvm.lifetime.end.p0(i64 8, ptr %8) #11
  %76 = load i32, ptr %4, align 4
  ret i32 %76
}

; Function Attrs: nounwind uwtable
define i32 @av_opt_get_key_value(ptr noundef %0, ptr noundef %1, ptr noundef %2, i32 noundef %3, ptr noundef %4, ptr noundef %5) #0 {
  %7 = alloca i32, align 4
  %8 = alloca ptr, align 8
  %9 = alloca ptr, align 8
  %10 = alloca ptr, align 8
  %11 = alloca i32, align 4
  %12 = alloca ptr, align 8
  %13 = alloca ptr, align 8
  %14 = alloca i32, align 4
  %15 = alloca ptr, align 8
  %16 = alloca ptr, align 8
  %17 = alloca ptr, align 8
  %18 = alloca i32, align 4
  store ptr %0, ptr %8, align 8, !tbaa !63
  store ptr %1, ptr %9, align 8, !tbaa !19
  store ptr %2, ptr %10, align 8, !tbaa !19
  store i32 %3, ptr %11, align 4, !tbaa !20
  store ptr %4, ptr %12, align 8, !tbaa !63
  store ptr %5, ptr %13, align 8, !tbaa !63
  call void @llvm.lifetime.start.p0(i64 4, ptr %14) #11
  call void @llvm.lifetime.start.p0(i64 8, ptr %15) #11
  store ptr null, ptr %15, align 8, !tbaa !19
  call void @llvm.lifetime.start.p0(i64 8, ptr %16) #11
  call void @llvm.lifetime.start.p0(i64 8, ptr %17) #11
  %19 = load ptr, ptr %8, align 8, !tbaa !63
  %20 = load ptr, ptr %19, align 8, !tbaa !19
  store ptr %20, ptr %17, align 8, !tbaa !19
  %21 = load ptr, ptr %9, align 8, !tbaa !19
  %22 = call i32 @get_key(ptr noundef %17, ptr noundef %21, ptr noundef %15)
  store i32 %22, ptr %14, align 4, !tbaa !20
  %23 = icmp slt i32 %22, 0
  br i1 %23, label %24, label %29

24:                                               ; preds = %6
  %25 = load i32, ptr %11, align 4, !tbaa !20
  %26 = and i32 %25, 1
  %27 = icmp ne i32 %26, 0
  br i1 %27, label %29, label %28

28:                                               ; preds = %24
  store i32 -22, ptr %7, align 4
  store i32 1, ptr %18, align 4
  br label %42

29:                                               ; preds = %24, %6
  %30 = load ptr, ptr %10, align 8, !tbaa !19
  %31 = call ptr @av_get_token(ptr noundef %17, ptr noundef %30)
  store ptr %31, ptr %16, align 8, !tbaa !19
  %32 = icmp ne ptr %31, null
  br i1 %32, label %35, label %33

33:                                               ; preds = %29
  %34 = load ptr, ptr %15, align 8, !tbaa !19
  call void @av_free(ptr noundef %34)
  store i32 -12, ptr %7, align 4
  store i32 1, ptr %18, align 4
  br label %42

35:                                               ; preds = %29
  %36 = load ptr, ptr %17, align 8, !tbaa !19
  %37 = load ptr, ptr %8, align 8, !tbaa !63
  store ptr %36, ptr %37, align 8, !tbaa !19
  %38 = load ptr, ptr %15, align 8, !tbaa !19
  %39 = load ptr, ptr %12, align 8, !tbaa !63
  store ptr %38, ptr %39, align 8, !tbaa !19
  %40 = load ptr, ptr %16, align 8, !tbaa !19
  %41 = load ptr, ptr %13, align 8, !tbaa !63
  store ptr %40, ptr %41, align 8, !tbaa !19
  store i32 0, ptr %7, align 4
  store i32 1, ptr %18, align 4
  br label %42

42:                                               ; preds = %35, %33, %28
  call void @llvm.lifetime.end.p0(i64 8, ptr %17) #11
  call void @llvm.lifetime.end.p0(i64 8, ptr %16) #11
  call void @llvm.lifetime.end.p0(i64 8, ptr %15) #11
  call void @llvm.lifetime.end.p0(i64 4, ptr %14) #11
  %43 = load i32, ptr %7, align 4
  ret i32 %43
}