; Function Attrs: nounwind uwtable
define range(i32 -22, 1) i32 @av_opt_get_key_value(ptr noundef captures(none) %0, ptr noundef readonly %1, ptr noundef %2, i32 noundef %3, ptr noundef writeonly captures(none) %4, ptr noundef writeonly captures(none) %5) local_unnamed_addr #2 {
  %7 = alloca ptr, align 8
  call void @llvm.lifetime.start.p0(i64 8, ptr nonnull %7) #18
  %8 = load ptr, ptr %0, align 8, !tbaa !33
  store ptr %8, ptr %7, align 8, !tbaa !33
  %9 = tail call i64 @strspn(ptr noundef %8, ptr noundef nonnull @.str.106) #19
  %10 = getelementptr inbounds nuw i8, ptr %8, i64 %9
  br label %11

11:                                               ; preds = %is_key_char.exit.thread.i, %6
  %.024.i = phi ptr [ %10, %6 ], [ %19, %is_key_char.exit.thread.i ]
  %12 = load i8, ptr %.024.i, align 1, !tbaa !29
  %13 = sext i8 %12 to i32
  %14 = or i32 %13, 32
  %15 = add nsw i32 %14, -97
  %16 = icmp ult i32 %15, 26
  %17 = add nsw i32 %13, -48
  %18 = icmp ult i32 %17, 10
  %or.cond.i.i = select i1 %16, i1 true, i1 %18
  br i1 %or.cond.i.i, label %is_key_char.exit.thread.i, label %switch.early.test.i.i

switch.early.test.i.i:                            ; preds = %11
  switch i8 %12, label %20 [
    i8 95, label %is_key_char.exit.thread.i
    i8 47, label %is_key_char.exit.thread.i
    i8 45, label %is_key_char.exit.thread.i
    i8 46, label %is_key_char.exit.thread.i
  ]

is_key_char.exit.thread.i:                        ; preds = %switch.early.test.i.i, %switch.early.test.i.i, %switch.early.test.i.i, %switch.early.test.i.i, %11
  %19 = getelementptr inbounds nuw i8, ptr %.024.i, i64 1
  br label %11, !llvm.loop !91

20:                                               ; preds = %switch.early.test.i.i
  %21 = tail call i64 @strspn(ptr noundef nonnull %.024.i, ptr noundef nonnull @.str.106) #19
  %22 = getelementptr inbounds nuw i8, ptr %.024.i, i64 %21
  %23 = load i8, ptr %22, align 1, !tbaa !29
  %.not27.i = icmp eq i8 %23, 0
  br i1 %.not27.i, label %get_key.exit, label %24

24:                                               ; preds = %20
  %25 = sext i8 %23 to i32
  %26 = tail call ptr @strchr(ptr noundef nonnull readonly dereferenceable(1) %1, i32 noundef %25) #19
  %.not28.i = icmp eq ptr %26, null
  br i1 %.not28.i, label %get_key.exit, label %27

27:                                               ; preds = %24
  %28 = ptrtoint ptr %.024.i to i64
  %29 = ptrtoint ptr %10 to i64
  %30 = sub i64 %28, %29
  %31 = add nsw i64 %30, 1
  %32 = tail call noalias ptr @av_malloc(i64 noundef %31) #18
  %.not29.i = icmp eq ptr %32, null
  br i1 %.not29.i, label %get_key.exit, label %get_key.exit.thread

get_key.exit.thread:                              ; preds = %27
  %33 = getelementptr inbounds nuw i8, ptr %22, i64 1
  tail call void @llvm.memcpy.p0.p0.i64(ptr nonnull align 1 %32, ptr align 1 %10, i64 %30, i1 false)
  %34 = getelementptr inbounds i8, ptr %32, i64 %30
  store i8 0, ptr %34, align 1, !tbaa !29
  store ptr %33, ptr %7, align 8, !tbaa !33
  br label %36

get_key.exit:                                     ; preds = %20, %24, %27
  %35 = and i32 %3, 1
  %.not = icmp eq i32 %35, 0
  br i1 %.not, label %41, label %36

36:                                               ; preds = %get_key.exit.thread, %get_key.exit
  %.01116 = phi ptr [ %32, %get_key.exit.thread ], [ null, %get_key.exit ]
  %37 = call ptr @av_get_token(ptr noundef nonnull %7, ptr noundef %2) #18
  %.not9 = icmp eq ptr %37, null
  br i1 %.not9, label %38, label %39

38:                                               ; preds = %36
  call void @av_free(ptr noundef %.01116) #18
  br label %41

39:                                               ; preds = %36
  %40 = load ptr, ptr %7, align 8, !tbaa !33
  store ptr %40, ptr %0, align 8, !tbaa !33
  store ptr %.01116, ptr %4, align 8, !tbaa !33
  store ptr %37, ptr %5, align 8, !tbaa !33
  br label %41

41:                                               ; preds = %get_key.exit, %39, %38
  %.0 = phi i32 [ 0, %39 ], [ -12, %38 ], [ -22, %get_key.exit ]
  call void @llvm.lifetime.end.p0(i64 8, ptr nonnull %7) #18
  ret i32 %.0
}